; Function Attrs: mustprogress uwtable
define noundef i32 @_ZNK7testing8internal12UnitTestImpl17failed_test_countEv(ptr noundef nonnull readonly align 8 captures(none) dereferenceable(601) %0) local_unnamed_addr #3 align 2 {
  %2 = getelementptr inbounds nuw i8, ptr %0, i64 184
  %3 = getelementptr inbounds nuw i8, ptr %0, i64 192
  %4 = load ptr, ptr %3, align 8, !tbaa !1128
  %5 = load ptr, ptr %2, align 8, !tbaa !1129
  %.not15.i = icmp eq ptr %4, %5
  br i1 %.not15.i, label %_ZN7testing8internalL20SumOverTestSuiteListERKSt6vectorIPNS_9TestSuiteESaIS3_EEMS2_KFivE.exit, label %.lr.ph.split.us.i.preheader

.lr.ph.split.us.i.preheader:                      ; preds = %1
  %6 = ptrtoint ptr %4 to i64
  %7 = ptrtoint ptr %5 to i64
  %8 = sub i64 %6, %7
  %9 = ashr exact i64 %8, 3
  %umax = tail call i64 @llvm.umax.i64(i64 %9, i64 1)
  br label %.lr.ph.split.us.i

.lr.ph.split.us.i:                                ; preds = %.lr.ph.split.us.i.preheader, %_ZNK7testing9TestSuite17failed_test_countEv.exit
  %.014.us.i = phi i64 [ %38, %_ZNK7testing9TestSuite17failed_test_countEv.exit ], [ 0, %.lr.ph.split.us.i.preheader ]
  %.01213.us.i = phi i32 [ %37, %_ZNK7testing9TestSuite17failed_test_countEv.exit ], [ 0, %.lr.ph.split.us.i.preheader ]
  %10 = getelementptr inbounds nuw ptr, ptr %5, i64 %.014.us.i
  %11 = load ptr, ptr %10, align 8, !tbaa !1113
  %12 = getelementptr inbounds nuw i8, ptr %11, i64 48
  %13 = load ptr, ptr %12, align 8, !tbaa !1130
  %14 = getelementptr inbounds nuw i8, ptr %11, i64 56
  %15 = load ptr, ptr %14, align 8, !tbaa !1130
  %.not7.i.i = icmp eq ptr %13, %15
  br i1 %.not7.i.i, label %_ZNK7testing9TestSuite17failed_test_countEv.exit, label %.lr.ph.i.i

.lr.ph.i.i:                                       ; preds = %.lr.ph.split.us.i, %_ZN7testing9TestSuite10TestFailedEPKNS_8TestInfoE.exit.i
  %.09.i.i = phi i32 [ %spec.select.i.i, %_ZN7testing9TestSuite10TestFailedEPKNS_8TestInfoE.exit.i ], [ 0, %.lr.ph.split.us.i ]
  %.sroa.04.08.i.i = phi ptr [ %36, %_ZN7testing9TestSuite10TestFailedEPKNS_8TestInfoE.exit.i ], [ %13, %.lr.ph.split.us.i ]
  %16 = load ptr, ptr %.sroa.04.08.i.i, align 8, !tbaa !1131
  %17 = getelementptr inbounds nuw i8, ptr %16, i64 128
  %18 = load i8, ptr %17, align 8, !tbaa !1132, !range !16, !noundef !17
  %19 = trunc nuw i8 %18 to i1
  br i1 %19, label %20, label %_ZN7testing9TestSuite10TestFailedEPKNS_8TestInfoE.exit.i

20:                                               ; preds = %.lr.ph.i.i
  %21 = getelementptr inbounds nuw i8, ptr %16, i64 200
  %22 = getelementptr inbounds nuw i8, ptr %16, i64 208
  %23 = load ptr, ptr %22, align 8, !tbaa !947
  %24 = load ptr, ptr %21, align 8, !tbaa !949
  %25 = ptrtoint ptr %23 to i64
  %26 = ptrtoint ptr %24 to i64
  %27 = sub i64 %25, %26
  %28 = sdiv exact i64 %27, 112
  %29 = trunc i64 %28 to i32
  %.not10.i.i.i = icmp sgt i32 %29, 0
  br i1 %.not10.i.i.i, label %.lr.ph.preheader.i.i.i, label %_ZN7testing9TestSuite10TestFailedEPKNS_8TestInfoE.exit.i

.lr.ph.preheader.i.i.i:                           ; preds = %20
  %wide.trip.count.i.i.i = and i64 %28, 2147483647
  br label %.lr.ph.i.i.i

30:                                               ; preds = %_ZNK7testing10TestResult17GetTestPartResultEi.exit.i.i.i
  %indvars.iv.next.i.i.i = add nuw nsw i64 %indvars.iv.i.i.i, 1
  %exitcond16.not.i.i.i = icmp eq i64 %indvars.iv.next.i.i.i, %wide.trip.count.i.i.i
  br i1 %exitcond16.not.i.i.i, label %_ZN7testing9TestSuite10TestFailedEPKNS_8TestInfoE.exit.i, label %.lr.ph.i.i.i, !llvm.loop !1135

.lr.ph.i.i.i:                                     ; preds = %30, %.lr.ph.preheader.i.i.i
  %indvars.iv.i.i.i = phi i64 [ 0, %.lr.ph.preheader.i.i.i ], [ %indvars.iv.next.i.i.i, %30 ]
  %exitcond.not.i.i.i = icmp eq i64 %indvars.iv.i.i.i, %28
  br i1 %exitcond.not.i.i.i, label %31, label %_ZNK7testing10TestResult17GetTestPartResultEi.exit.i.i.i

31:                                               ; preds = %.lr.ph.i.i.i
  tail call void (ptr, ...) @_ZSt24__throw_out_of_range_fmtPKcz(ptr noundef nonnull @.str.548, i64 noundef %28, i64 noundef %28) #60
  unreachable

_ZNK7testing10TestResult17GetTestPartResultEi.exit.i.i.i: ; preds = %.lr.ph.i.i.i
  %32 = getelementptr inbounds nuw %"class.testing::TestPartResult", ptr %24, i64 %indvars.iv.i.i.i
  %33 = load i32, ptr %32, align 8, !tbaa !946
  %34 = add i32 %33, -1
  %spec.select.i.i.i.i = icmp ult i32 %34, 2
  br i1 %spec.select.i.i.i.i, label %_ZN7testing9TestSuite10TestFailedEPKNS_8TestInfoE.exit.i, label %30

_ZN7testing9TestSuite10TestFailedEPKNS_8TestInfoE.exit.i: ; preds = %_ZNK7testing10TestResult17GetTestPartResultEi.exit.i.i.i, %30, %20, %.lr.ph.i.i
  %35 = phi i32 [ 0, %.lr.ph.i.i ], [ 0, %20 ], [ 1, %_ZNK7testing10TestResult17GetTestPartResultEi.exit.i.i.i ], [ 0, %30 ]
  %spec.select.i.i = add nuw nsw i32 %35, %.09.i.i
  %36 = getelementptr inbounds nuw i8, ptr %.sroa.04.08.i.i, i64 8
  %.not.i.i = icmp eq ptr %36, %15
  br i1 %.not.i.i, label %_ZNK7testing9TestSuite17failed_test_countEv.exit, label %.lr.ph.i.i, !llvm.loop !1137

_ZNK7testing9TestSuite17failed_test_countEv.exit: ; preds = %_ZN7testing9TestSuite10TestFailedEPKNS_8TestInfoE.exit.i, %.lr.ph.split.us.i
  %.0.lcssa.i.i = phi i32 [ 0, %.lr.ph.split.us.i ], [ %spec.select.i.i, %_ZN7testing9TestSuite10TestFailedEPKNS_8TestInfoE.exit.i ]
  %37 = add nsw i32 %.0.lcssa.i.i, %.01213.us.i
  %38 = add nuw i64 %.014.us.i, 1
  %exitcond.not = icmp eq i64 %38, %umax
  br i1 %exitcond.not, label %_ZN7testing8internalL20SumOverTestSuiteListERKSt6vectorIPNS_9TestSuiteESaIS3_EEMS2_KFivE.exit, label %.lr.ph.split.us.i, !llvm.loop !1138

_ZN7testing8internalL20SumOverTestSuiteListERKSt6vectorIPNS_9TestSuiteESaIS3_EEMS2_KFivE.exit: ; preds = %_ZNK7testing9TestSuite17failed_test_countEv.exit, %1
  %.012.lcssa.i = phi i32 [ 0, %1 ], [ %37, %_ZNK7testing9TestSuite17failed_test_countEv.exit ]
  ret i32 %.012.lcssa.i
}